(dp1
S'session_d'
p2
(dp3
S'CR12B_110508_001_behaving'
p4
S'/media/hippocampus/chris/20121115_CR12B_allsessions/CR12B_110508_001_behaving/klusters0'
p5
sS'CR12B_110423_001_behaving'
p6
S'/media/hippocampus/chris/20121115_CR12B_allsessions/CR12B_110423_001_behaving/klusters0'
p7
sS'CR12B_110422_001_behaving'
p8
S'/media/hippocampus/chris/20121115_CR12B_allsessions/CR12B_110422_001_behaving/klusters0'
p9
sS'CR12B_110421_001_behaving'
p10
S'/media/hippocampus/chris/20121115_CR12B_allsessions/CR12B_110421_001_behaving/klusters0'
p11
sS'CR12B_110502_001_behaving'
p12
S'/media/hippocampus/chris/20121115_CR12B_allsessions/CR12B_110502_001_behaving/klusters0'
p13
sS'CR12B_110425_001_behaving'
p14
S'/media/hippocampus/chris/20121115_CR12B_allsessions/CR12B_110425_001_behaving/klusters0'
p15
sS'CR12B_110504_001_behaving'
p16
S'/media/hippocampus/chris/20121115_CR12B_allsessions/CR12B_110504_001_behaving/klusters0'
p17
sS'CR12B_110514_001_behaving'
p18
S'/media/hippocampus/chris/20121115_CR12B_allsessions/CR12B_110514_001_behaving/klusters0'
p19
sS'CR12B_110516_001_behaving'
p20
S'/media/hippocampus/chris/20121115_CR12B_allsessions/CR12B_110516_001_behaving/klusters0'
p21
sS'CR12B_110420_001_behaving'
p22
S'/media/hippocampus/chris/20121115_CR12B_allsessions/CR12B_110420_001_behaving/klusters0'
p23
sS'CR12B_110518_001_behaving'
p24
S'/media/hippocampus/chris/20121115_CR12B_allsessions/CR12B_110518_001_behaving/klusters0'
p25
sS'CR12B_110505_001_behaving'
p26
S'/media/hippocampus/chris/20121115_CR12B_allsessions/CR12B_110505_001_behaving/klusters0'
p27
sS'CR12B_110430_001_behaving'
p28
S'/media/hippocampus/chris/20121115_CR12B_allsessions/CR12B_110430_001_behaving/klusters0'
p29
sS'CR12B_110511_001_behaving'
p30
S'/media/hippocampus/chris/20121115_CR12B_allsessions/CR12B_110511_001_behaving/klusters0'
p31
sS'CR12B_110418_001_behaving'
p32
S'/media/hippocampus/chris/20121115_CR12B_allsessions/CR12B_110418_001_behaving/klusters0'
p33
sS'CR12B_110503_001_behaving'
p34
S'/media/hippocampus/chris/20121115_CR12B_allsessions/CR12B_110503_001_behaving/klusters0'
p35
sS'CR12B_110517_001_behaving'
p36
S'/media/hippocampus/chris/20121115_CR12B_allsessions/CR12B_110517_001_behaving/klusters0'
p37
sS'CR12B_110507_001_behaving'
p38
S'/media/hippocampus/chris/20121115_CR12B_allsessions/CR12B_110507_001_behaving/klusters0'
p39
sS'CR12B_110426_001_behaving'
p40
S'/media/hippocampus/chris/20121115_CR12B_allsessions/CR12B_110426_001_behaving/klusters0'
p41
sS'CR12B_110429_001_behaving'
p42
S'/media/hippocampus/chris/20121115_CR12B_allsessions/CR12B_110429_001_behaving/klusters0'
p43
sS'CR12B_110428_001_behaving'
p44
S'/media/hippocampus/chris/20121115_CR12B_allsessions/CR12B_110428_001_behaving/klusters0'
p45
sS'CR12B_110506_001_behaving'
p46
S'/media/hippocampus/chris/20121115_CR12B_allsessions/CR12B_110506_001_behaving/klusters0'
p47
ssS'kk_kwargs'
p48
(dp49
S'group_multiplier'
p50
I100
sS'fs'
p51
F30000
sS'load_memoized'
p52
I01
sS'save_memoized'
p53
I01
ss.