(dp1
S'session_d'
p2
(dp3
S'CR17B_110802_001_behaving'
p4
S'/media/hippocampus/chris/20121220_CR17B_allsessions/CR17B_110802_001_behaving/klusters0'
p5
sS'CR17B_110803_001_behaving'
p6
S'/media/hippocampus/chris/20121220_CR17B_allsessions/CR17B_110803_001_behaving/klusters0'
p7
sS'CR17B_110806_001_behaving'
p8
S'/media/hippocampus/chris/20121220_CR17B_allsessions/CR17B_110806_001_behaving/klusters0'
p9
sS'CR17B_110805_001_behaving'
p10
S'/media/hippocampus/chris/20121220_CR17B_allsessions/CR17B_110805_001_behaving/klusters0'
p11
sS'CR17B_110731_001_behaving'
p12
S'/media/hippocampus/chris/20121220_CR17B_allsessions/CR17B_110731_001_behaving/klusters0'
p13
sS'CR17B_110729_001_behaving'
p14
S'/media/hippocampus/chris/20121220_CR17B_allsessions/CR17B_110729_001_behaving/klusters0'
p15
sS'CR17B_110728_001_behaving'
p16
S'/media/hippocampus/chris/20121220_CR17B_allsessions/CR17B_110728_001_behaving/klusters0'
p17
sS'CR17B_110808_001_behaving'
p18
S'/media/hippocampus/chris/20121220_CR17B_allsessions/CR17B_110808_001_behaving/klusters0'
p19
sS'CR17B_110804_001_behaving'
p20
S'/media/hippocampus/chris/20121220_CR17B_allsessions/CR17B_110804_001_behaving/klusters0'
p21
sS'CR17B_110727_001_behaving'
p22
S'/media/hippocampus/chris/20121220_CR17B_allsessions/CR17B_110727_001_behaving/klusters0'
p23
sS'CR17B_110801_001_behaving'
p24
S'/media/hippocampus/chris/20121220_CR17B_allsessions/CR17B_110801_001_behaving/klusters0'
p25
ssS'kk_kwargs'
p26
(dp27
S'group_multiplier'
p28
I100
sS'fs'
p29
F30000
sS'load_memoized'
p30
I01
sS'save_memoized'
p31
I01
ss.