(dp1
S'session_d'
p2
(dp3
S'CR20B_120602_001_behaving'
p4
S'/media/hippocampus/chris/20120705_CR20B_allsessions/CR20B_120602_001_behaving/klusters0'
p5
sS'CR20B_120603_001_behaving'
p6
S'/media/hippocampus/chris/20120705_CR20B_allsessions/CR20B_120603_001_behaving/klusters0'
p7
sS'CR20B_120609_001_behaving'
p8
S'/media/hippocampus/chris/20120705_CR20B_allsessions/CR20B_120609_001_behaving/klusters0'
p9
sS'CR20B_120531_001_behaving'
p10
S'/media/hippocampus/chris/20120705_CR20B_allsessions/CR20B_120531_001_behaving/klusters0'
p11
sS'CR20B_120605_001_behaving'
p12
S'/media/hippocampus/chris/20120705_CR20B_allsessions/CR20B_120605_001_behaving/klusters0'
p13
sS'CR20B_120612_001_behaving'
p14
S'/media/hippocampus/chris/20120705_CR20B_allsessions/CR20B_120612_001_behaving/klusters0'
p15
sS'CR20B_120606_004_behaving'
p16
S'/media/hippocampus/chris/20120705_CR20B_allsessions/CR20B_120606_004_behaving/klusters0'
p17
sS'CR20B_120608_001_behaving'
p18
S'/media/hippocampus/chris/20120705_CR20B_allsessions/CR20B_120608_001_behaving/klusters0'
p19
sS'CR20B_120601_001_behaving'
p20
S'/media/hippocampus/chris/20120705_CR20B_allsessions/CR20B_120601_001_behaving/klusters0'
p21
sS'CR20B_120604_001_behaving'
p22
S'/media/hippocampus/chris/20120705_CR20B_allsessions/CR20B_120604_001_behaving/klusters0'
p23
sS'CR20B_120607_003_behaving'
p24
S'/media/hippocampus/chris/20120705_CR20B_allsessions/CR20B_120607_003_behaving/klusters0'
p25
sS'CR20B_120613_001_behaving'
p26
S'/media/hippocampus/chris/20120705_CR20B_allsessions/CR20B_120613_001_behaving/klusters0'
p27
ssS'kk_kwargs'
p28
(dp29
S'group_multiplier'
p30
I100
sS'fs'
p31
F30000
sS'load_memoized'
p32
I01
sS'save_memoized'
p33
I01
ss.