(dp1
S'session_d'
p2
(dp3
S'CR21A_120503_004_behaving'
p4
S'/media/hippocampus/chris/20120622_CR21A_allsessions/CR21A_120503_004_behaving/klusters0'
p5
sS'CR21A_120509_001_behaving'
p6
S'/media/hippocampus/chris/20120622_CR21A_allsessions/CR21A_120509_001_behaving/klusters0'
p7
sS'CR21A_120502_003_behaving'
p8
S'/media/hippocampus/chris/20120622_CR21A_allsessions/CR21A_120502_003_behaving/klusters0'
p9
sS'CR21A_120504_004_behaving'
p10
S'/media/hippocampus/chris/20120622_CR21A_allsessions/CR21A_120504_004_behaving/klusters0'
p11
sS'CR21A_120506_003_behaving'
p12
S'/media/hippocampus/chris/20120622_CR21A_allsessions/CR21A_120506_003_behaving/klusters0'
p13
sS'CR21A_120507_003_behaving'
p14
S'/media/hippocampus/chris/20120622_CR21A_allsessions/CR21A_120507_003_behaving/klusters0'
p15
sS'CR21A_120505_003_behaving'
p16
S'/media/hippocampus/chris/20120622_CR21A_allsessions/CR21A_120505_003_behaving/klusters0'
p17
sS'CR21A_120510_004_behaving'
p18
S'/media/hippocampus/chris/20120622_CR21A_allsessions/CR21A_120510_004_behaving/klusters0'
p19
sS'CR21A_120508_001_behaving'
p20
S'/media/hippocampus/chris/20120622_CR21A_allsessions/CR21A_120508_001_behaving/klusters0'
p21
ssS'kk_kwargs'
p22
(dp23
S'group_multiplier'
p24
I100
sS'fs'
p25
F30000
sS'load_memoized'
p26
I01
sS'save_memoized'
p27
I01
ss.