(dp1
S'session_d'
p2
(dp3
S'CR24A_121101_001_behaving'
p4
S'/media/hippocampus/chris/20121217_CR24A_allsessions/CR24A_121101_001_behaving/klusters0'
p5
sS'CR24A_121031_001_behaving'
p6
S'/media/hippocampus/chris/20121217_CR24A_allsessions/CR24A_121031_001_behaving/klusters0'
p7
sS'CR24A_121024_001_behaving'
p8
S'/media/hippocampus/chris/20121217_CR24A_allsessions/CR24A_121024_001_behaving/klusters0'
p9
sS'CR24A_121008_001_behaving'
p10
S'/media/hippocampus/chris/20121217_CR24A_allsessions/CR24A_121008_001_behaving/klusters0'
p11
sS'CR24A_121027_001_behaving'
p12
S'/media/hippocampus/chris/20121217_CR24A_allsessions/CR24A_121027_001_behaving/klusters0'
p13
sS'CR24A_121019_001_behaving'
p14
S'/media/hippocampus/chris/20121217_CR24A_allsessions/CR24A_121019_001_behaving/klusters0'
p15
sS'CR24A_121023_001_behaving'
p16
S'/media/hippocampus/chris/20121217_CR24A_allsessions/CR24A_121023_001_behaving/klusters0'
p17
sS'CR24A_121029_001_behaving'
p18
S'/media/hippocampus/chris/20121217_CR24A_allsessions/CR24A_121029_001_behaving/klusters0'
p19
sS'CR24A_121030_001_behaving'
p20
S'/media/hippocampus/chris/20121217_CR24A_allsessions/CR24A_121030_001_behaving/klusters0'
p21
sS'CR24A_121026_001_behaving'
p22
S'/media/hippocampus/chris/20121217_CR24A_allsessions/CR24A_121026_001_behaving/klusters0'
p23
sS'CR24A_121021_001_behaving'
p24
S'/media/hippocampus/chris/20121217_CR24A_allsessions/CR24A_121021_001_behaving/klusters0'
p25
sS'CR24A_121022_001_behaving'
p26
S'/media/hippocampus/chris/20121217_CR24A_allsessions/CR24A_121022_001_behaving/klusters0'
p27
ssS'kk_kwargs'
p28
(dp29
S'group_multiplier'
p30
I100
sS'fs'
p31
F30000
sS'load_memoized'
p32
I01
sS'save_memoized'
p33
I01
ss.