(dp1
S'session_d'
p2
(dp3
S'YT6A_110131_behaving'
p4
S'/media/hippocampus/chris/20120221_YT6A_allsessions/YT6A_110131_behaving/klusters1'
p5
sS'YT6A_120202_behaving'
p6
S'/media/hippocampus/chris/20120221_YT6A_allsessions/YT6A_120202_behaving/klusters1'
p7
sS'YT6A_120130_behaving'
p8
S'/media/hippocampus/chris/20120221_YT6A_allsessions/YT6A_120130_behaving/klusters1'
p9
sS'YT6A_120201_behaving'
p10
S'/media/hippocampus/chris/20120221_YT6A_allsessions/YT6A_120201_behaving/klusters1'
p11
sS'YT6A_120203_behaving'
p12
S'/media/hippocampus/chris/20120221_YT6A_allsessions/YT6A_120203_behaving/klusters1'
p13
sS'YT6A_120129_behaving'
p14
S'/media/hippocampus/chris/20120221_YT6A_allsessions/YT6A_120129_behaving/klusters1'
p15
ssS'kk_kwargs'
p16
(dp17
S'group_multiplier'
p18
I100
sS'fs'
p19
F30000
sS'load_memoized'
p20
I01
sS'save_memoized'
p21
I01
ss.